target datalayout = "e-m:e-p270:32:32-p271:32:32-p272:64:64-i64:64-i128:128-f80:128-n8:16:32:64-S128"
target triple = "x86_64-pc-linux-gnu"

%struct.yv12_buffer_config = type { %union.anon.2, %union.anon.4, %union.anon.6, %union.anon.8, %union.anon.10, %union.anon.12, i32, [3 x ptr], ptr, i32, ptr, i64, i32, i64, i32, i32, i32, i32, i32, i32, i8, i32, i32, i32, i32, i32, i32, ptr }
%union.anon.2 = type { %struct.anon.3 }
%struct.anon.3 = type { i32, i32 }
%union.anon.4 = type { %struct.anon.5 }
%struct.anon.5 = type { i32, i32 }
%union.anon.6 = type { %struct.anon.7 }
%struct.anon.7 = type { i32, i32 }
%union.anon.8 = type { %struct.anon.9 }
%struct.anon.9 = type { i32, i32 }
%union.anon.10 = type { %struct.anon.11 }
%struct.anon.11 = type { i32, i32 }
%union.anon.12 = type { %struct.anon.13 }
%struct.anon.13 = type { ptr, ptr, ptr }
%struct.aom_image = type { i32, i32, i32, i32, i32, i32, i32, i32, i32, i32, i32, i32, i32, i32, i32, i32, [3 x ptr], [3 x i32], i64, i32, i32, i32, ptr, ptr, i32, i32, ptr, ptr }

; Function Attrs: nounwind uwtable
define internal void @yuvconfig2image(ptr noundef %0, ptr noundef %1, ptr noundef %2) #0 {
  %4 = alloca ptr, align 8
  %5 = alloca ptr, align 8
  %6 = alloca ptr, align 8
  %7 = alloca i32, align 4
  store ptr %0, ptr %4, align 8
  store ptr %1, ptr %5, align 8
  store ptr %2, ptr %6, align 8
  %8 = load ptr, ptr %5, align 8
  %9 = getelementptr inbounds nuw %struct.yv12_buffer_config, ptr %8, i32 0, i32 15
  %10 = load i32, ptr %9, align 4
  %11 = icmp ne i32 %10, 0
  br i1 %11, label %24, label %12

12:                                               ; preds = %3
  %13 = load ptr, ptr %5, align 8
  %14 = getelementptr inbounds nuw %struct.yv12_buffer_config, ptr %13, i32 0, i32 14
  %15 = load i32, ptr %14, align 8
  %16 = icmp ne i32 %15, 0
  br i1 %16, label %20, label %17

17:                                               ; preds = %12
  %18 = load ptr, ptr %4, align 8
  %19 = getelementptr inbounds nuw %struct.aom_image, ptr %18, i32 0, i32 0
  store i32 262, ptr %19, align 8
  store i32 24, ptr %7, align 4
  br label %23

20:                                               ; preds = %12
  %21 = load ptr, ptr %4, align 8
  %22 = getelementptr inbounds nuw %struct.aom_image, ptr %21, i32 0, i32 0
  store i32 261, ptr %22, align 8
  store i32 16, ptr %7, align 4
  br label %23

23:                                               ; preds = %20, %17
  br label %27

24:                                               ; preds = %3
  %25 = load ptr, ptr %4, align 8
  %26 = getelementptr inbounds nuw %struct.aom_image, ptr %25, i32 0, i32 0
  store i32 258, ptr %26, align 8
  store i32 12, ptr %7, align 4
  br label %27

27:                                               ; preds = %24, %23
  %28 = load ptr, ptr %5, align 8
  %29 = getelementptr inbounds nuw %struct.yv12_buffer_config, ptr %28, i32 0, i32 17
  %30 = load i32, ptr %29, align 4
  %31 = load ptr, ptr %4, align 8
  %32 = getelementptr inbounds nuw %struct.aom_image, ptr %31, i32 0, i32 1
  store i32 %30, ptr %32, align 4
  %33 = load ptr, ptr %5, align 8
  %34 = getelementptr inbounds nuw %struct.yv12_buffer_config, ptr %33, i32 0, i32 18
  %35 = load i32, ptr %34, align 8
  %36 = load ptr, ptr %4, align 8
  %37 = getelementptr inbounds nuw %struct.aom_image, ptr %36, i32 0, i32 2
  store i32 %35, ptr %37, align 8
  %38 = load ptr, ptr %5, align 8
  %39 = getelementptr inbounds nuw %struct.yv12_buffer_config, ptr %38, i32 0, i32 19
  %40 = load i32, ptr %39, align 4
  %41 = load ptr, ptr %4, align 8
  %42 = getelementptr inbounds nuw %struct.aom_image, ptr %41, i32 0, i32 3
  store i32 %40, ptr %42, align 4
  %43 = load ptr, ptr %5, align 8
  %44 = getelementptr inbounds nuw %struct.yv12_buffer_config, ptr %43, i32 0, i32 20
  %45 = load i8, ptr %44, align 8
  %46 = zext i8 %45 to i32
  %47 = load ptr, ptr %4, align 8
  %48 = getelementptr inbounds nuw %struct.aom_image, ptr %47, i32 0, i32 4
  store i32 %46, ptr %48, align 8
  %49 = load ptr, ptr %5, align 8
  %50 = getelementptr inbounds nuw %struct.yv12_buffer_config, ptr %49, i32 0, i32 21
  %51 = load i32, ptr %50, align 4
  %52 = load ptr, ptr %4, align 8
  %53 = getelementptr inbounds nuw %struct.aom_image, ptr %52, i32 0, i32 5
  store i32 %51, ptr %53, align 4
  %54 = load ptr, ptr %5, align 8
  %55 = getelementptr inbounds nuw %struct.yv12_buffer_config, ptr %54, i32 0, i32 22
  %56 = load i32, ptr %55, align 8
  %57 = load ptr, ptr %4, align 8
  %58 = getelementptr inbounds nuw %struct.aom_image, ptr %57, i32 0, i32 6
  store i32 %56, ptr %58, align 8
  %59 = load ptr, ptr %4, align 8
  %60 = getelementptr inbounds nuw %struct.aom_image, ptr %59, i32 0, i32 9
  store i32 8, ptr %60, align 4
  %61 = load ptr, ptr %5, align 8
  %62 = getelementptr inbounds nuw %struct.yv12_buffer_config, ptr %61, i32 0, i32 0
  %63 = getelementptr inbounds nuw %struct.anon.3, ptr %62, i32 0, i32 0
  %64 = load i32, ptr %63, align 8
  %65 = load ptr, ptr %4, align 8
  %66 = getelementptr inbounds nuw %struct.aom_image, ptr %65, i32 0, i32 7
  store i32 %64, ptr %66, align 4
  %67 = load ptr, ptr %5, align 8
  %68 = getelementptr inbounds nuw %struct.yv12_buffer_config, ptr %67, i32 0, i32 1
  %69 = getelementptr inbounds nuw %struct.anon.5, ptr %68, i32 0, i32 0
  %70 = load i32, ptr %69, align 8
  %71 = load ptr, ptr %4, align 8
  %72 = getelementptr inbounds nuw %struct.aom_image, ptr %71, i32 0, i32 8
  store i32 %70, ptr %72, align 8
  %73 = load ptr, ptr %5, align 8
  %74 = getelementptr inbounds nuw %struct.yv12_buffer_config, ptr %73, i32 0, i32 2
  %75 = getelementptr inbounds nuw %struct.anon.7, ptr %74, i32 0, i32 0
  %76 = load i32, ptr %75, align 8
  %77 = load ptr, ptr %4, align 8
  %78 = getelementptr inbounds nuw %struct.aom_image, ptr %77, i32 0, i32 10
  store i32 %76, ptr %78, align 8
  %79 = load ptr, ptr %5, align 8
  %80 = getelementptr inbounds nuw %struct.yv12_buffer_config, ptr %79, i32 0, i32 3
  %81 = getelementptr inbounds nuw %struct.anon.9, ptr %80, i32 0, i32 0
  %82 = load i32, ptr %81, align 8
  %83 = load ptr, ptr %4, align 8
  %84 = getelementptr inbounds nuw %struct.aom_image, ptr %83, i32 0, i32 11
  store i32 %82, ptr %84, align 4
  %85 = load ptr, ptr %5, align 8
  %86 = getelementptr inbounds nuw %struct.yv12_buffer_config, ptr %85, i32 0, i32 23
  %87 = load i32, ptr %86, align 4
  %88 = load ptr, ptr %4, align 8
  %89 = getelementptr inbounds nuw %struct.aom_image, ptr %88, i32 0, i32 12
  store i32 %87, ptr %89, align 8
  %90 = load ptr, ptr %5, align 8
  %91 = getelementptr inbounds nuw %struct.yv12_buffer_config, ptr %90, i32 0, i32 24
  %92 = load i32, ptr %91, align 8
  %93 = load ptr, ptr %4, align 8
  %94 = getelementptr inbounds nuw %struct.aom_image, ptr %93, i32 0, i32 13
  store i32 %92, ptr %94, align 4
  %95 = load ptr, ptr %5, align 8
  %96 = getelementptr inbounds nuw %struct.yv12_buffer_config, ptr %95, i32 0, i32 14
  %97 = load i32, ptr %96, align 8
  %98 = load ptr, ptr %4, align 8
  %99 = getelementptr inbounds nuw %struct.aom_image, ptr %98, i32 0, i32 14
  store i32 %97, ptr %99, align 8
  %100 = load ptr, ptr %5, align 8
  %101 = getelementptr inbounds nuw %struct.yv12_buffer_config, ptr %100, i32 0, i32 15
  %102 = load i32, ptr %101, align 4
  %103 = load ptr, ptr %4, align 8
  %104 = getelementptr inbounds nuw %struct.aom_image, ptr %103, i32 0, i32 15
  store i32 %102, ptr %104, align 4
  %105 = load ptr, ptr %5, align 8
  %106 = getelementptr inbounds nuw %struct.yv12_buffer_config, ptr %105, i32 0, i32 5
  %107 = getelementptr inbounds nuw %struct.anon.13, ptr %106, i32 0, i32 0
  %108 = load ptr, ptr %107, align 8
  %109 = load ptr, ptr %4, align 8
  %110 = getelementptr inbounds nuw %struct.aom_image, ptr %109, i32 0, i32 16
  %111 = getelementptr inbounds [3 x ptr], ptr %110, i64 0, i64 0
  store ptr %108, ptr %111, align 8
  %112 = load ptr, ptr %5, align 8
  %113 = getelementptr inbounds nuw %struct.yv12_buffer_config, ptr %112, i32 0, i32 5
  %114 = getelementptr inbounds nuw %struct.anon.13, ptr %113, i32 0, i32 1
  %115 = load ptr, ptr %114, align 8
  %116 = load ptr, ptr %4, align 8
  %117 = getelementptr inbounds nuw %struct.aom_image, ptr %116, i32 0, i32 16
  %118 = getelementptr inbounds [3 x ptr], ptr %117, i64 0, i64 1
  store ptr %115, ptr %118, align 8
  %119 = load ptr, ptr %5, align 8
  %120 = getelementptr inbounds nuw %struct.yv12_buffer_config, ptr %119, i32 0, i32 5
  %121 = getelementptr inbounds nuw %struct.anon.13, ptr %120, i32 0, i32 2
  %122 = load ptr, ptr %121, align 8
  %123 = load ptr, ptr %4, align 8
  %124 = getelementptr inbounds nuw %struct.aom_image, ptr %123, i32 0, i32 16
  %125 = getelementptr inbounds [3 x ptr], ptr %124, i64 0, i64 2
  store ptr %122, ptr %125, align 8
  %126 = load ptr, ptr %5, align 8
  %127 = getelementptr inbounds nuw %struct.yv12_buffer_config, ptr %126, i32 0, i32 4
  %128 = getelementptr inbounds nuw %struct.anon.11, ptr %127, i32 0, i32 0
  %129 = load i32, ptr %128, align 8
  %130 = load ptr, ptr %4, align 8
  %131 = getelementptr inbounds nuw %struct.aom_image, ptr %130, i32 0, i32 17
  %132 = getelementptr inbounds [3 x i32], ptr %131, i64 0, i64 0
  store i32 %129, ptr %132, align 8
  %133 = load ptr, ptr %5, align 8
  %134 = getelementptr inbounds nuw %struct.yv12_buffer_config, ptr %133, i32 0, i32 4
  %135 = getelementptr inbounds nuw %struct.anon.11, ptr %134, i32 0, i32 1
  %136 = load i32, ptr %135, align 4
  %137 = load ptr, ptr %4, align 8
  %138 = getelementptr inbounds nuw %struct.aom_image, ptr %137, i32 0, i32 17
  %139 = getelementptr inbounds [3 x i32], ptr %138, i64 0, i64 1
  store i32 %136, ptr %139, align 4
  %140 = load ptr, ptr %5, align 8
  %141 = getelementptr inbounds nuw %struct.yv12_buffer_config, ptr %140, i32 0, i32 4
  %142 = getelementptr inbounds nuw %struct.anon.11, ptr %141, i32 0, i32 1
  %143 = load i32, ptr %142, align 4
  %144 = load ptr, ptr %4, align 8
  %145 = getelementptr inbounds nuw %struct.aom_image, ptr %144, i32 0, i32 17
  %146 = getelementptr inbounds [3 x i32], ptr %145, i64 0, i64 2
  store i32 %143, ptr %146, align 8
  %147 = load ptr, ptr %5, align 8
  %148 = getelementptr inbounds nuw %struct.yv12_buffer_config, ptr %147, i32 0, i32 26
  %149 = load i32, ptr %148, align 8
  %150 = and i32 %149, 8
  %151 = icmp ne i32 %150, 0
  br i1 %151, label %152, label %220

152:                                              ; preds = %27
  %153 = load i32, ptr %7, align 4
  %154 = mul nsw i32 %153, 2
  store i32 %154, ptr %7, align 4
  %155 = load ptr, ptr %4, align 8
  %156 = getelementptr inbounds nuw %struct.aom_image, ptr %155, i32 0, i32 0
  %157 = load i32, ptr %156, align 8
  %158 = or i32 %157, 2048
  %159 = load ptr, ptr %4, align 8
  %160 = getelementptr inbounds nuw %struct.aom_image, ptr %159, i32 0, i32 0
  store i32 %158, ptr %160, align 8
  %161 = load ptr, ptr %5, align 8
  %162 = getelementptr inbounds nuw %struct.yv12_buffer_config, ptr %161, i32 0, i32 16
  %163 = load i32, ptr %162, align 8
  %164 = load ptr, ptr %4, align 8
  %165 = getelementptr inbounds nuw %struct.aom_image, ptr %164, i32 0, i32 9
  store i32 %163, ptr %165, align 4
  %166 = load ptr, ptr %5, align 8
  %167 = getelementptr inbounds nuw %struct.yv12_buffer_config, ptr %166, i32 0, i32 5
  %168 = getelementptr inbounds nuw %struct.anon.13, ptr %167, i32 0, i32 0
  %169 = load ptr, ptr %168, align 8
  %170 = ptrtoint ptr %169 to i64
  %171 = shl i64 %170, 1
  %172 = inttoptr i64 %171 to ptr
  %173 = load ptr, ptr %4, align 8
  %174 = getelementptr inbounds nuw %struct.aom_image, ptr %173, i32 0, i32 16
  %175 = getelementptr inbounds [3 x ptr], ptr %174, i64 0, i64 0
  store ptr %172, ptr %175, align 8
  %176 = load ptr, ptr %5, align 8
  %177 = getelementptr inbounds nuw %struct.yv12_buffer_config, ptr %176, i32 0, i32 5
  %178 = getelementptr inbounds nuw %struct.anon.13, ptr %177, i32 0, i32 1
  %179 = load ptr, ptr %178, align 8
  %180 = ptrtoint ptr %179 to i64
  %181 = shl i64 %180, 1
  %182 = inttoptr i64 %181 to ptr
  %183 = load ptr, ptr %4, align 8
  %184 = getelementptr inbounds nuw %struct.aom_image, ptr %183, i32 0, i32 16
  %185 = getelementptr inbounds [3 x ptr], ptr %184, i64 0, i64 1
  store ptr %182, ptr %185, align 8
  %186 = load ptr, ptr %5, align 8
  %187 = getelementptr inbounds nuw %struct.yv12_buffer_config, ptr %186, i32 0, i32 5
  %188 = getelementptr inbounds nuw %struct.anon.13, ptr %187, i32 0, i32 2
  %189 = load ptr, ptr %188, align 8
  %190 = ptrtoint ptr %189 to i64
  %191 = shl i64 %190, 1
  %192 = inttoptr i64 %191 to ptr
  %193 = load ptr, ptr %4, align 8
  %194 = getelementptr inbounds nuw %struct.aom_image, ptr %193, i32 0, i32 16
  %195 = getelementptr inbounds [3 x ptr], ptr %194, i64 0, i64 2
  store ptr %192, ptr %195, align 8
  %196 = load ptr, ptr %5, align 8
  %197 = getelementptr inbounds nuw %struct.yv12_buffer_config, ptr %196, i32 0, i32 4
  %198 = getelementptr inbounds nuw %struct.anon.11, ptr %197, i32 0, i32 0
  %199 = load i32, ptr %198, align 8
  %200 = mul nsw i32 2, %199
  %201 = load ptr, ptr %4, align 8
  %202 = getelementptr inbounds nuw %struct.aom_image, ptr %201, i32 0, i32 17
  %203 = getelementptr inbounds [3 x i32], ptr %202, i64 0, i64 0
  store i32 %200, ptr %203, align 8
  %204 = load ptr, ptr %5, align 8
  %205 = getelementptr inbounds nuw %struct.yv12_buffer_config, ptr %204, i32 0, i32 4
  %206 = getelementptr inbounds nuw %struct.anon.11, ptr %205, i32 0, i32 1
  %207 = load i32, ptr %206, align 4
  %208 = mul nsw i32 2, %207
  %209 = load ptr, ptr %4, align 8
  %210 = getelementptr inbounds nuw %struct.aom_image, ptr %209, i32 0, i32 17
  %211 = getelementptr inbounds [3 x i32], ptr %210, i64 0, i64 1
  store i32 %208, ptr %211, align 4
  %212 = load ptr, ptr %5, align 8
  %213 = getelementptr inbounds nuw %struct.yv12_buffer_config, ptr %212, i32 0, i32 4
  %214 = getelementptr inbounds nuw %struct.anon.11, ptr %213, i32 0, i32 1
  %215 = load i32, ptr %214, align 4
  %216 = mul nsw i32 2, %215
  %217 = load ptr, ptr %4, align 8
  %218 = getelementptr inbounds nuw %struct.aom_image, ptr %217, i32 0, i32 17
  %219 = getelementptr inbounds [3 x i32], ptr %218, i64 0, i64 2
  store i32 %216, ptr %219, align 8
  br label %220

220:                                              ; preds = %152, %27
  %221 = load i32, ptr %7, align 4
  %222 = load ptr, ptr %4, align 8
  %223 = getelementptr inbounds nuw %struct.aom_image, ptr %222, i32 0, i32 19
  store i32 %221, ptr %223, align 8
  %224 = load ptr, ptr %6, align 8
  %225 = load ptr, ptr %4, align 8
  %226 = getelementptr inbounds nuw %struct.aom_image, ptr %225, i32 0, i32 22
  store ptr %224, ptr %226, align 8
  %227 = load ptr, ptr %5, align 8
  %228 = getelementptr inbounds nuw %struct.yv12_buffer_config, ptr %227, i32 0, i32 10
  %229 = load ptr, ptr %228, align 8
  %230 = load ptr, ptr %4, align 8
  %231 = getelementptr inbounds nuw %struct.aom_image, ptr %230, i32 0, i32 23
  store ptr %229, ptr %231, align 8
  %232 = load ptr, ptr %4, align 8
  %233 = getelementptr inbounds nuw %struct.aom_image, ptr %232, i32 0, i32 24
  store i32 0, ptr %233, align 8
  %234 = load ptr, ptr %4, align 8
  %235 = getelementptr inbounds nuw %struct.aom_image, ptr %234, i32 0, i32 25
  store i32 0, ptr %235, align 4
  %236 = load ptr, ptr %5, align 8
  %237 = getelementptr inbounds nuw %struct.yv12_buffer_config, ptr %236, i32 0, i32 13
  %238 = load i64, ptr %237, align 8
  %239 = load ptr, ptr %4, align 8
  %240 = getelementptr inbounds nuw %struct.aom_image, ptr %239, i32 0, i32 18
  store i64 %238, ptr %240, align 8
  %241 = load ptr, ptr %4, align 8
  %242 = getelementptr inbounds nuw %struct.aom_image, ptr %241, i32 0, i32 26
  store ptr null, ptr %242, align 8
  ret void
}