; Function Attrs: mustprogress nofree norecurse nosync nounwind willreturn memory(argmem: readwrite) uwtable
define internal fastcc void @yuvconfig2image(ptr nocapture noundef writeonly %0, ptr nocapture noundef readonly %1, ptr noundef %2) unnamed_addr #1 {
  %4 = getelementptr inbounds nuw i8, ptr %1, i64 148
  %5 = load i32, ptr %4, align 4
  %.not = icmp eq i32 %5, 0
  br i1 %.not, label %6, label %9

6:                                                ; preds = %3
  %7 = getelementptr inbounds nuw i8, ptr %1, i64 144
  %8 = load i32, ptr %7, align 8
  %.not74 = icmp eq i32 %8, 0
  %. = select i1 %.not74, i32 262, i32 261
  %.76 = select i1 %.not74, i32 2310, i32 2309
  %.77 = select i1 %.not74, i32 24, i32 16
  br label %9

9:                                                ; preds = %3, %6
  %.sink = phi i32 [ %., %6 ], [ 258, %3 ]
  %10 = phi i32 [ %.76, %6 ], [ 2306, %3 ]
  %.0 = phi i32 [ %.77, %6 ], [ 12, %3 ]
  store i32 %.sink, ptr %0, align 8
  %11 = getelementptr inbounds nuw i8, ptr %1, i64 156
  %12 = load i32, ptr %11, align 4
  %13 = getelementptr inbounds nuw i8, ptr %0, i64 4
  store i32 %12, ptr %13, align 4
  %14 = getelementptr inbounds nuw i8, ptr %1, i64 160
  %15 = load i32, ptr %14, align 8
  %16 = getelementptr inbounds nuw i8, ptr %0, i64 8
  store i32 %15, ptr %16, align 8
  %17 = getelementptr inbounds nuw i8, ptr %1, i64 164
  %18 = load i32, ptr %17, align 4
  %19 = getelementptr inbounds nuw i8, ptr %0, i64 12
  store i32 %18, ptr %19, align 4
  %20 = getelementptr inbounds nuw i8, ptr %1, i64 168
  %21 = load i8, ptr %20, align 8
  %22 = zext i8 %21 to i32
  %23 = getelementptr inbounds nuw i8, ptr %0, i64 16
  store i32 %22, ptr %23, align 8
  %24 = getelementptr inbounds nuw i8, ptr %1, i64 172
  %25 = load i32, ptr %24, align 4
  %26 = getelementptr inbounds nuw i8, ptr %0, i64 20
  store i32 %25, ptr %26, align 4
  %27 = getelementptr inbounds nuw i8, ptr %1, i64 176
  %28 = load i32, ptr %27, align 8
  %29 = getelementptr inbounds nuw i8, ptr %0, i64 24
  store i32 %28, ptr %29, align 8
  %30 = getelementptr inbounds nuw i8, ptr %0, i64 36
  store i32 8, ptr %30, align 4
  %31 = load i32, ptr %1, align 8
  %32 = getelementptr inbounds nuw i8, ptr %0, i64 28
  store i32 %31, ptr %32, align 4
  %33 = getelementptr inbounds nuw i8, ptr %1, i64 8
  %34 = load i32, ptr %33, align 8
  %35 = getelementptr inbounds nuw i8, ptr %0, i64 32
  store i32 %34, ptr %35, align 8
  %36 = getelementptr inbounds nuw i8, ptr %1, i64 16
  %37 = load i32, ptr %36, align 8
  %38 = getelementptr inbounds nuw i8, ptr %0, i64 40
  store i32 %37, ptr %38, align 8
  %39 = getelementptr inbounds nuw i8, ptr %1, i64 24
  %40 = load i32, ptr %39, align 8
  %41 = getelementptr inbounds nuw i8, ptr %0, i64 44
  store i32 %40, ptr %41, align 4
  %42 = getelementptr inbounds nuw i8, ptr %1, i64 180
  %43 = load i32, ptr %42, align 4
  %44 = getelementptr inbounds nuw i8, ptr %0, i64 48
  store i32 %43, ptr %44, align 8
  %45 = getelementptr inbounds nuw i8, ptr %1, i64 184
  %46 = load i32, ptr %45, align 8
  %47 = getelementptr inbounds nuw i8, ptr %0, i64 52
  store i32 %46, ptr %47, align 4
  %48 = getelementptr inbounds nuw i8, ptr %1, i64 144
  %49 = load i32, ptr %48, align 8
  %50 = getelementptr inbounds nuw i8, ptr %0, i64 56
  store i32 %49, ptr %50, align 8
  %51 = load i32, ptr %4, align 4
  %52 = getelementptr inbounds nuw i8, ptr %0, i64 60
  store i32 %51, ptr %52, align 4
  %53 = getelementptr inbounds nuw i8, ptr %1, i64 40
  %54 = load ptr, ptr %53, align 8
  %55 = getelementptr inbounds nuw i8, ptr %0, i64 64
  store ptr %54, ptr %55, align 8
  %56 = getelementptr inbounds i8, ptr %1, i64 48
  %57 = load ptr, ptr %56, align 8
  %58 = getelementptr inbounds i8, ptr %0, i64 72
  store ptr %57, ptr %58, align 8
  %59 = getelementptr inbounds i8, ptr %1, i64 56
  %60 = load ptr, ptr %59, align 8
  %61 = getelementptr inbounds i8, ptr %0, i64 80
  store ptr %60, ptr %61, align 8
  %62 = getelementptr inbounds nuw i8, ptr %1, i64 32
  %63 = load i32, ptr %62, align 8
  %64 = getelementptr inbounds nuw i8, ptr %0, i64 88
  store i32 %63, ptr %64, align 8
  %65 = getelementptr inbounds i8, ptr %1, i64 36
  %66 = load i32, ptr %65, align 4
  %67 = getelementptr inbounds i8, ptr %0, i64 92
  store i32 %66, ptr %67, align 4
  %68 = getelementptr inbounds i8, ptr %0, i64 96
  store i32 %66, ptr %68, align 8
  %69 = getelementptr inbounds nuw i8, ptr %1, i64 192
  %70 = load i32, ptr %69, align 8
  %71 = and i32 %70, 8
  %.not75 = icmp eq i32 %71, 0
  br i1 %.not75, label %94, label %72

72:                                               ; preds = %9
  %73 = shl nuw nsw i32 %.0, 1
  store i32 %10, ptr %0, align 8
  %74 = getelementptr inbounds nuw i8, ptr %1, i64 152
  %75 = load i32, ptr %74, align 8
  store i32 %75, ptr %30, align 4
  %76 = load ptr, ptr %53, align 8
  %77 = ptrtoint ptr %76 to i64
  %78 = shl i64 %77, 1
  %79 = inttoptr i64 %78 to ptr
  store ptr %79, ptr %55, align 8
  %80 = load ptr, ptr %56, align 8
  %81 = ptrtoint ptr %80 to i64
  %82 = shl i64 %81, 1
  %83 = inttoptr i64 %82 to ptr
  store ptr %83, ptr %58, align 8
  %84 = load ptr, ptr %59, align 8
  %85 = ptrtoint ptr %84 to i64
  %86 = shl i64 %85, 1
  %87 = inttoptr i64 %86 to ptr
  store ptr %87, ptr %61, align 8
  %88 = load i32, ptr %62, align 8
  %89 = shl nsw i32 %88, 1
  store i32 %89, ptr %64, align 8
  %90 = load i32, ptr %65, align 4
  %91 = shl nsw i32 %90, 1
  store i32 %91, ptr %67, align 4
  %92 = load i32, ptr %65, align 4
  %93 = shl nsw i32 %92, 1
  store i32 %93, ptr %68, align 8
  br label %94

94:                                               ; preds = %72, %9
  %.1 = phi i32 [ %73, %72 ], [ %.0, %9 ]
  %95 = getelementptr inbounds nuw i8, ptr %0, i64 112
  store i32 %.1, ptr %95, align 8
  %96 = getelementptr inbounds nuw i8, ptr %0, i64 128
  store ptr %2, ptr %96, align 8
  %97 = getelementptr inbounds nuw i8, ptr %1, i64 112
  %98 = load ptr, ptr %97, align 8
  %99 = getelementptr inbounds nuw i8, ptr %0, i64 136
  store ptr %98, ptr %99, align 8
  %100 = getelementptr inbounds nuw i8, ptr %0, i64 144
  store i32 0, ptr %100, align 8
  %101 = getelementptr inbounds nuw i8, ptr %0, i64 148
  store i32 0, ptr %101, align 4
  %102 = getelementptr inbounds nuw i8, ptr %1, i64 136
  %103 = load i64, ptr %102, align 8
  %104 = getelementptr inbounds nuw i8, ptr %0, i64 104
  store i64 %103, ptr %104, align 8
  %105 = getelementptr inbounds nuw i8, ptr %0, i64 152
  store ptr null, ptr %105, align 8
  ret void
}